; Function Attrs: nofree nosync nounwind memory(argmem: readwrite) uwtable
define void @Gia_ManCheckSuppMark_rec(ptr noundef readnone captures(none) %0, ptr noundef captures(none) %1) local_unnamed_addr #24 {
  %3 = load i64, ptr %1, align 4
  %4 = and i64 %3, 1073741824
  %.not9 = icmp eq i64 %4, 0
  br i1 %.not9, label %.lr.ph, label %._crit_edge

.lr.ph:                                           ; preds = %2, %tailrecurse
  %5 = phi i64 [ %16, %tailrecurse ], [ %3, %2 ]
  %.tr810 = phi ptr [ %15, %tailrecurse ], [ %1, %2 ]
  %6 = or disjoint i64 %5, 1073741824
  store i64 %6, ptr %.tr810, align 4
  %7 = and i64 %5, 2684354559
  %narrow.i.not = icmp eq i64 %7, 2684354559
  br i1 %narrow.i.not, label %._crit_edge, label %tailrecurse

tailrecurse:                                      ; preds = %.lr.ph
  %8 = and i64 %5, 536870911
  %9 = sub nsw i64 0, %8
  %10 = getelementptr inbounds %struct.Gia_Obj_t_, ptr %.tr810, i64 %9
  tail call void @Gia_ManCheckSuppMark_rec(ptr noundef %0, ptr noundef nonnull %10)
  %11 = load i64, ptr %.tr810, align 4
  %12 = lshr i64 %11, 32
  %13 = and i64 %12, 536870911
  %14 = sub nsw i64 0, %13
  %15 = getelementptr inbounds %struct.Gia_Obj_t_, ptr %.tr810, i64 %14
  %16 = load i64, ptr %15, align 4
  %17 = and i64 %16, 1073741824
  %.not = icmp eq i64 %17, 0
  br i1 %.not, label %.lr.ph, label %._crit_edge

._crit_edge:                                      ; preds = %tailrecurse, %.lr.ph, %2
  ret void
}